target datalayout = "e-m:e-p270:32:32-p271:32:32-p272:64:64-i64:64-i128:128-f80:128-n8:16:32:64-S128"
target triple = "x86_64-pc-linux-gnu"

%"class.icu_77::MaybeStackArray" = type <{ ptr, i32, i8, [40 x i8], [3 x i8] }>
%"class.icu_77::BytesTrieElement" = type { i32, i32 }
%"class.icu_77::CharString" = type { %"class.icu_77::MaybeStackArray", i32, [4 x i8] }
%"class.icu_77::BytesTrieBuilder" = type { %"class.icu_77::StringTrieBuilder", ptr, ptr, i32, i32, ptr, i32, i32 }
%"class.icu_77::StringTrieBuilder" = type { %"class.icu_77::UObject", ptr }
%"class.icu_77::UObject" = type { ptr }

; Function Attrs: mustprogress nounwind uwtable
define weak_odr noundef nonnull align 1 dereferenceable(1) ptr @_ZNK6icu_7715MaybeStackArrayIcLi40EEixEl(ptr noundef nonnull align 8 dereferenceable(53) %0, i64 noundef %1) #0 comdat align 2 {
  %3 = alloca ptr, align 8
  %4 = alloca i64, align 8
  store ptr %0, ptr %3, align 8, !tbaa !3
  store i64 %1, ptr %4, align 8, !tbaa !18
  %5 = load ptr, ptr %3, align 8
  %6 = getelementptr inbounds nuw %"class.icu_77::MaybeStackArray", ptr %5, i32 0, i32 0
  %7 = load ptr, ptr %6, align 8, !tbaa !8
  %8 = load i64, ptr %4, align 8, !tbaa !18
  %9 = getelementptr inbounds i8, ptr %7, i64 %8
  ret ptr %9
}

; Function Attrs: mustprogress nounwind uwtable
define linkonce_odr noundef signext i8 @_ZNK6icu_7710CharStringixEi(ptr noundef nonnull align 8 dereferenceable(60) %0, i32 noundef %1) #0 comdat align 2 {
  %3 = alloca ptr, align 8
  %4 = alloca i32, align 4
  store ptr %0, ptr %3, align 8, !tbaa !25
  store i32 %1, ptr %4, align 4, !tbaa !14
  %5 = load ptr, ptr %3, align 8
  %6 = getelementptr inbounds nuw %"class.icu_77::CharString", ptr %5, i32 0, i32 0
  %7 = load i32, ptr %4, align 4, !tbaa !14
  %8 = sext i32 %7 to i64
  %9 = call noundef nonnull align 1 dereferenceable(1) ptr @_ZNK6icu_7715MaybeStackArrayIcLi40EEixEl(ptr noundef nonnull align 8 dereferenceable(53) %6, i64 noundef %8)
  %10 = load i8, ptr %9, align 1, !tbaa !52
  ret i8 %10
}

; Function Attrs: mustprogress nounwind uwtable
define linkonce_odr noundef i32 @_ZNK6icu_7716BytesTrieElement15getStringLengthERKNS_10CharStringE(ptr noundef nonnull align 4 dereferenceable(8) %0, ptr noundef nonnull align 8 dereferenceable(60) %1) #0 comdat align 2 {
  %3 = alloca i32, align 4
  %4 = alloca ptr, align 8
  %5 = alloca ptr, align 8
  %6 = alloca i32, align 4
  %7 = alloca i32, align 4
  store ptr %0, ptr %4, align 8, !tbaa !23
  store ptr %1, ptr %5, align 8, !tbaa !25
  %8 = load ptr, ptr %4, align 8
  call void @llvm.lifetime.start.p0(i64 4, ptr %6) #12
  %9 = getelementptr inbounds nuw %"class.icu_77::BytesTrieElement", ptr %8, i32 0, i32 0
  %10 = load i32, ptr %9, align 4, !tbaa !27
  store i32 %10, ptr %6, align 4, !tbaa !14
  %11 = load i32, ptr %6, align 4, !tbaa !14
  %12 = icmp sge i32 %11, 0
  br i1 %12, label %13, label %18

13:                                               ; preds = %2
  %14 = load ptr, ptr %5, align 8, !tbaa !25
  %15 = load i32, ptr %6, align 4, !tbaa !14
  %16 = call noundef signext i8 @_ZNK6icu_7710CharStringixEi(ptr noundef nonnull align 8 dereferenceable(60) %14, i32 noundef %15)
  %17 = zext i8 %16 to i32
  store i32 %17, ptr %3, align 4
  store i32 1, ptr %7, align 4
  br label %32

18:                                               ; preds = %2
  %19 = load i32, ptr %6, align 4, !tbaa !14
  %20 = xor i32 %19, -1
  store i32 %20, ptr %6, align 4, !tbaa !14
  %21 = load ptr, ptr %5, align 8, !tbaa !25
  %22 = load i32, ptr %6, align 4, !tbaa !14
  %23 = call noundef signext i8 @_ZNK6icu_7710CharStringixEi(ptr noundef nonnull align 8 dereferenceable(60) %21, i32 noundef %22)
  %24 = zext i8 %23 to i32
  %25 = shl i32 %24, 8
  %26 = load ptr, ptr %5, align 8, !tbaa !25
  %27 = load i32, ptr %6, align 4, !tbaa !14
  %28 = add nsw i32 %27, 1
  %29 = call noundef signext i8 @_ZNK6icu_7710CharStringixEi(ptr noundef nonnull align 8 dereferenceable(60) %26, i32 noundef %28)
  %30 = zext i8 %29 to i32
  %31 = or i32 %25, %30
  store i32 %31, ptr %3, align 4
  store i32 1, ptr %7, align 4
  br label %32

32:                                               ; preds = %18, %13
  call void @llvm.lifetime.end.p0(i64 4, ptr %6) #12
  %33 = load i32, ptr %3, align 4
  ret i32 %33
}

; Function Attrs: mustprogress uwtable
define noundef i32 @_ZNK6icu_7716BytesTrieBuilder22getElementStringLengthEi(ptr noundef nonnull align 8 dereferenceable(56) %0, i32 noundef %1) unnamed_addr #1 align 2 {
  %3 = alloca ptr, align 8
  %4 = alloca i32, align 4
  store ptr %0, ptr %3, align 8, !tbaa !37
  store i32 %1, ptr %4, align 4, !tbaa !14
  %5 = load ptr, ptr %3, align 8
  %6 = getelementptr inbounds nuw %"class.icu_77::BytesTrieBuilder", ptr %5, i32 0, i32 2
  %7 = load ptr, ptr %6, align 8, !tbaa !46
  %8 = load i32, ptr %4, align 4, !tbaa !14
  %9 = sext i32 %8 to i64
  %10 = getelementptr inbounds %"class.icu_77::BytesTrieElement", ptr %7, i64 %9
  %11 = getelementptr inbounds nuw %"class.icu_77::BytesTrieBuilder", ptr %5, i32 0, i32 1
  %12 = load ptr, ptr %11, align 8, !tbaa !41
  %13 = call noundef i32 @_ZNK6icu_7716BytesTrieElement15getStringLengthERKNS_10CharStringE(ptr noundef nonnull align 4 dereferenceable(8) %10, ptr noundef nonnull align 8 dereferenceable(60) %12)
  ret i32 %13
}