; Function Attrs: mustprogress nofree norecurse nosync nounwind willreturn memory(read, inaccessiblemem: none) uwtable
define noundef range(i32 0, 65536) i32 @_ZNK6icu_7716BytesTrieBuilder22getElementStringLengthEi(ptr noundef nonnull readonly align 8 captures(none) dereferenceable(56) %0, i32 noundef %1) unnamed_addr #14 align 2 {
  %3 = getelementptr inbounds nuw i8, ptr %0, i64 24
  %4 = load ptr, ptr %3, align 8, !tbaa !30
  %5 = sext i32 %1 to i64
  %6 = getelementptr inbounds %"class.icu_77::BytesTrieElement", ptr %4, i64 %5
  %7 = getelementptr inbounds nuw i8, ptr %0, i64 16
  %8 = load ptr, ptr %7, align 8, !tbaa !23
  %9 = load i32, ptr %6, align 4, !tbaa !17
  %10 = icmp sgt i32 %9, -1
  br i1 %10, label %11, label %17

11:                                               ; preds = %2
  %12 = zext nneg i32 %9 to i64
  %13 = load ptr, ptr %8, align 8, !tbaa !3
  %14 = getelementptr inbounds nuw i8, ptr %13, i64 %12
  %15 = load i8, ptr %14, align 1, !tbaa !20
  %16 = zext i8 %15 to i32
  br label %_ZNK6icu_7716BytesTrieElement15getStringLengthERKNS_10CharStringE.exit

17:                                               ; preds = %2
  %18 = xor i32 %9, -1
  %19 = zext nneg i32 %18 to i64
  %20 = load ptr, ptr %8, align 8, !tbaa !3
  %21 = getelementptr inbounds nuw i8, ptr %20, i64 %19
  %22 = load i8, ptr %21, align 1, !tbaa !20
  %23 = zext i8 %22 to i32
  %24 = shl nuw nsw i32 %23, 8
  %25 = sub nsw i32 0, %9
  %26 = zext nneg i32 %25 to i64
  %27 = getelementptr inbounds nuw i8, ptr %20, i64 %26
  %28 = load i8, ptr %27, align 1, !tbaa !20
  %29 = zext i8 %28 to i32
  %30 = or disjoint i32 %24, %29
  br label %_ZNK6icu_7716BytesTrieElement15getStringLengthERKNS_10CharStringE.exit

_ZNK6icu_7716BytesTrieElement15getStringLengthERKNS_10CharStringE.exit: ; preds = %11, %17
  %.0.i = phi i32 [ %16, %11 ], [ %30, %17 ]
  ret i32 %.0.i
}